target datalayout = "e-m:e-p270:32:32-p271:32:32-p272:64:64-i64:64-i128:128-f80:128-n8:16:32:64-S128"
target triple = "x86_64-pc-linux-gnu"

%struct.rb_code_location_struct = type { %struct.rb_code_position_struct, %struct.rb_code_position_struct }
%struct.rb_code_position_struct = type { i32, i32 }
%struct.lex_context = type { i16, [2 x i8] }
%struct.parser_params = type { ptr, ptr, %struct.anon.12, i64, i64, i32, i32, i32, i32, i32, ptr, ptr, ptr, ptr, i32, i32, ptr, i64, ptr, ptr, ptr, ptr, i64, i64, %struct.anon.13, ptr, i32, ptr, i32, i64, %struct.lex_context, ptr, ptr, ptr, i32, i64, ptr, ptr, i32, ptr }
%struct.anon.12 = type { ptr, ptr, ptr, %struct.parser_string_buffer, ptr, ptr, ptr, ptr, ptr, ptr, i32, i32, i32, i32 }
%struct.parser_string_buffer = type { ptr, ptr }
%struct.anon.13 = type { ptr, i32, i32, i32, i32 }
%struct.RNode_BLOCK = type { %struct.RNode, ptr, ptr, ptr }
%struct.RNode = type { i64, %struct.rb_code_location_struct, i32 }

@.str.860 = private unnamed_addr constant [22 x i8] c"statement not reached\00", align 1

; Function Attrs: inlinehint nounwind sspstrong uwtable
define internal void @nd_set_line(ptr noundef %0, i64 noundef %1) #2 {
  %3 = alloca ptr, align 8
  %4 = alloca i64, align 8
  store ptr %0, ptr %3, align 8, !tbaa !65
  store i64 %1, ptr %4, align 8, !tbaa !12
  %5 = load ptr, ptr %3, align 8, !tbaa !65
  %6 = getelementptr inbounds nuw %struct.RNode, ptr %5, i32 0, i32 0
  %7 = load i64, ptr %6, align 8, !tbaa !110
  %8 = and i64 %7, 32767
  store i64 %8, ptr %6, align 8, !tbaa !110
  %9 = load i64, ptr %4, align 8, !tbaa !12
  %10 = and i64 %9, 562949953421311
  %11 = shl i64 %10, 15
  %12 = load ptr, ptr %3, align 8, !tbaa !65
  %13 = getelementptr inbounds nuw %struct.RNode, ptr %12, i32 0, i32 0
  %14 = load i64, ptr %13, align 8, !tbaa !110
  %15 = or i64 %14, %11
  store i64 %15, ptr %13, align 8, !tbaa !110
  ret void
}

; Function Attrs: nounwind sspstrong uwtable
define internal i32 @parser_get_node_id(ptr noundef %0) #0 {
  %2 = alloca ptr, align 8
  %3 = alloca i32, align 4
  store ptr %0, ptr %2, align 8, !tbaa !7
  call void @llvm.lifetime.start.p0(i64 4, ptr %3) #26
  %4 = load ptr, ptr %2, align 8, !tbaa !7
  %5 = getelementptr inbounds nuw %struct.parser_params, ptr %4, i32 0, i32 26
  %6 = load i32, ptr %5, align 8, !tbaa !575
  store i32 %6, ptr %3, align 4, !tbaa !34
  %7 = load ptr, ptr %2, align 8, !tbaa !7
  %8 = getelementptr inbounds nuw %struct.parser_params, ptr %7, i32 0, i32 26
  %9 = load i32, ptr %8, align 8, !tbaa !575
  %10 = add i32 %9, 1
  store i32 %10, ptr %8, align 8, !tbaa !575
  %11 = load i32, ptr %3, align 4, !tbaa !34
  call void @llvm.lifetime.end.p0(i64 4, ptr %3) #26
  ret i32 %11
}

; Function Attrs: nounwind sspstrong uwtable
define internal ptr @nd_set_loc(ptr noundef %0, ptr noundef %1) #0 {
  %3 = alloca ptr, align 8
  %4 = alloca ptr, align 8
  store ptr %0, ptr %3, align 8, !tbaa !65
  store ptr %1, ptr %4, align 8, !tbaa !39
  %5 = load ptr, ptr %3, align 8, !tbaa !65
  %6 = getelementptr inbounds nuw %struct.RNode, ptr %5, i32 0, i32 1
  %7 = load ptr, ptr %4, align 8, !tbaa !39
  call void @llvm.memcpy.p0.p0.i64(ptr align 8 %6, ptr align 4 %7, i64 16, i1 false), !tbaa.struct !33
  %8 = load ptr, ptr %3, align 8, !tbaa !65
  %9 = load ptr, ptr %4, align 8, !tbaa !39
  %10 = getelementptr inbounds nuw %struct.rb_code_location_struct, ptr %9, i32 0, i32 0
  %11 = getelementptr inbounds nuw %struct.rb_code_position_struct, ptr %10, i32 0, i32 0
  %12 = load i32, ptr %11, align 4, !tbaa !173
  %13 = sext i32 %12 to i64
  call void @nd_set_line(ptr noundef %8, i64 noundef %13)
  %14 = load ptr, ptr %3, align 8, !tbaa !65
  ret ptr %14
}

; Function Attrs: nounwind sspstrong uwtable
define internal ptr @node_new_internal(ptr noundef %0, i32 noundef %1, i64 noundef %2, i64 noundef %3) #0 {
  %5 = alloca ptr, align 8
  %6 = alloca i32, align 4
  %7 = alloca i64, align 8
  %8 = alloca i64, align 8
  %9 = alloca ptr, align 8
  store ptr %0, ptr %5, align 8, !tbaa !7
  store i32 %1, ptr %6, align 4, !tbaa !34
  store i64 %2, ptr %7, align 8, !tbaa !12
  store i64 %3, ptr %8, align 8, !tbaa !12
  call void @llvm.lifetime.start.p0(i64 8, ptr %9) #26
  %10 = load ptr, ptr %5, align 8, !tbaa !7
  %11 = getelementptr inbounds nuw %struct.parser_params, ptr %10, i32 0, i32 25
  %12 = load ptr, ptr %11, align 8, !tbaa !107
  %13 = load i32, ptr %6, align 4, !tbaa !34
  %14 = load i64, ptr %7, align 8, !tbaa !12
  %15 = load i64, ptr %8, align 8, !tbaa !12
  %16 = call ptr @rb_ast_newnode(ptr noundef %12, i32 noundef %13, i64 noundef %14, i64 noundef %15)
  store ptr %16, ptr %9, align 8, !tbaa !65
  %17 = load ptr, ptr %9, align 8, !tbaa !65
  %18 = load i32, ptr %6, align 4, !tbaa !34
  call void @rb_node_init(ptr noundef %17, i32 noundef %18)
  %19 = load ptr, ptr %9, align 8, !tbaa !65
  call void @llvm.lifetime.end.p0(i64 8, ptr %9) #26
  ret ptr %19
}

; Function Attrs: nounwind sspstrong uwtable
define internal ptr @node_newnode(ptr noundef %0, i32 noundef %1, i64 noundef %2, i64 noundef %3, ptr noundef %4) #0 {
  %6 = alloca ptr, align 8
  %7 = alloca i32, align 4
  %8 = alloca i64, align 8
  %9 = alloca i64, align 8
  %10 = alloca ptr, align 8
  %11 = alloca ptr, align 8
  store ptr %0, ptr %6, align 8, !tbaa !7
  store i32 %1, ptr %7, align 4, !tbaa !34
  store i64 %2, ptr %8, align 8, !tbaa !12
  store i64 %3, ptr %9, align 8, !tbaa !12
  store ptr %4, ptr %10, align 8, !tbaa !39
  call void @llvm.lifetime.start.p0(i64 8, ptr %11) #26
  %12 = load ptr, ptr %6, align 8, !tbaa !7
  %13 = load i32, ptr %7, align 4, !tbaa !34
  %14 = load i64, ptr %8, align 8, !tbaa !12
  %15 = load i64, ptr %9, align 8, !tbaa !12
  %16 = call ptr @node_new_internal(ptr noundef %12, i32 noundef %13, i64 noundef %14, i64 noundef %15)
  store ptr %16, ptr %11, align 8, !tbaa !65
  %17 = load ptr, ptr %11, align 8, !tbaa !65
  %18 = load ptr, ptr %10, align 8, !tbaa !39
  %19 = call ptr @nd_set_loc(ptr noundef %17, ptr noundef %18)
  %20 = load ptr, ptr %6, align 8, !tbaa !7
  %21 = call i32 @parser_get_node_id(ptr noundef %20)
  %22 = load ptr, ptr %11, align 8, !tbaa !65
  %23 = getelementptr inbounds nuw %struct.RNode, ptr %22, i32 0, i32 2
  store i32 %21, ptr %23, align 8, !tbaa !641
  %24 = load ptr, ptr %11, align 8, !tbaa !65
  call void @llvm.lifetime.end.p0(i64 8, ptr %11) #26
  ret ptr %24
}

; Function Attrs: inlinehint nounwind sspstrong uwtable
define internal zeroext i1 @nd_type_p(ptr noundef %0, i32 noundef %1) #2 {
  %3 = alloca ptr, align 8
  %4 = alloca i32, align 4
  store ptr %0, ptr %3, align 8, !tbaa !65
  store i32 %1, ptr %4, align 4, !tbaa !34
  %5 = load ptr, ptr %3, align 8, !tbaa !65
  %6 = getelementptr inbounds nuw %struct.RNode, ptr %5, i32 0, i32 0
  %7 = load i64, ptr %6, align 8, !tbaa !110
  %8 = and i64 %7, 32512
  %9 = lshr i64 %8, 8
  %10 = trunc i64 %9 to i32
  %11 = load i32, ptr %4, align 4, !tbaa !34
  %12 = icmp eq i32 %10, %11
  ret i1 %12
}

; Function Attrs: inlinehint nounwind sspstrong uwtable
define internal i32 @nd_line(ptr noundef %0) #2 {
  %2 = alloca i32, align 4
  %3 = alloca ptr, align 8
  %4 = alloca i64, align 8
  store ptr %0, ptr %3, align 8, !tbaa !65
  %5 = load ptr, ptr %3, align 8, !tbaa !65
  %6 = icmp ne ptr %5, null
  br i1 %6, label %8, label %7

7:                                                ; preds = %1
  store i32 -1, ptr %2, align 4
  br label %15

8:                                                ; preds = %1
  call void @llvm.lifetime.start.p0(i64 8, ptr %4) #26
  %9 = load ptr, ptr %3, align 8, !tbaa !65
  %10 = getelementptr inbounds nuw %struct.RNode, ptr %9, i32 0, i32 0
  %11 = load i64, ptr %10, align 8, !tbaa !110
  store i64 %11, ptr %4, align 8, !tbaa !12
  %12 = load i64, ptr %4, align 8, !tbaa !12
  %13 = ashr i64 %12, 15
  %14 = trunc i64 %13 to i32
  store i32 %14, ptr %2, align 4
  call void @llvm.lifetime.end.p0(i64 8, ptr %4) #26
  br label %15

15:                                               ; preds = %8, %7
  %16 = load i32, ptr %2, align 4
  ret i32 %16
}

; Function Attrs: nounwind sspstrong uwtable
define internal ptr @rb_node_block_new(ptr noundef %0, ptr noundef %1, ptr noundef %2) #0 {
  %4 = alloca ptr, align 8
  %5 = alloca ptr, align 8
  %6 = alloca ptr, align 8
  %7 = alloca ptr, align 8
  store ptr %0, ptr %4, align 8, !tbaa !7
  store ptr %1, ptr %5, align 8, !tbaa !65
  store ptr %2, ptr %6, align 8, !tbaa !39
  call void @llvm.lifetime.start.p0(i64 8, ptr %7) #26
  %8 = load ptr, ptr %4, align 8, !tbaa !7
  %9 = load ptr, ptr %6, align 8, !tbaa !39
  %10 = call ptr @node_newnode(ptr noundef %8, i32 noundef 1, i64 noundef 56, i64 noundef 8, ptr noundef %9)
  store ptr %10, ptr %7, align 8, !tbaa !356
  %11 = load ptr, ptr %5, align 8, !tbaa !65
  %12 = load ptr, ptr %7, align 8, !tbaa !356
  %13 = getelementptr inbounds nuw %struct.RNode_BLOCK, ptr %12, i32 0, i32 1
  store ptr %11, ptr %13, align 8, !tbaa !73
  %14 = load ptr, ptr %7, align 8, !tbaa !356
  %15 = load ptr, ptr %7, align 8, !tbaa !356
  %16 = getelementptr inbounds nuw %struct.RNode_BLOCK, ptr %15, i32 0, i32 2
  store ptr %14, ptr %16, align 8, !tbaa !207
  %17 = load ptr, ptr %7, align 8, !tbaa !356
  %18 = getelementptr inbounds nuw %struct.RNode_BLOCK, ptr %17, i32 0, i32 3
  store ptr null, ptr %18, align 8, !tbaa !66
  %19 = load ptr, ptr %7, align 8, !tbaa !356
  call void @llvm.lifetime.end.p0(i64 8, ptr %7) #26
  ret ptr %19
}

; Function Attrs: nounwind sspstrong uwtable
define internal ptr @block_append(ptr noundef %0, ptr noundef %1, ptr noundef %2) #0 {
  %4 = alloca ptr, align 8
  %5 = alloca ptr, align 8
  %6 = alloca ptr, align 8
  %7 = alloca ptr, align 8
  %8 = alloca ptr, align 8
  %9 = alloca ptr, align 8
  %10 = alloca ptr, align 8
  %11 = alloca i32, align 4
  store ptr %0, ptr %5, align 8, !tbaa !7
  store ptr %1, ptr %6, align 8, !tbaa !65
  store ptr %2, ptr %7, align 8, !tbaa !65
  call void @llvm.lifetime.start.p0(i64 8, ptr %8) #26
  call void @llvm.lifetime.start.p0(i64 8, ptr %9) #26
  %12 = load ptr, ptr %6, align 8, !tbaa !65
  store ptr %12, ptr %9, align 8, !tbaa !65
  call void @llvm.lifetime.start.p0(i64 8, ptr %10) #26
  %13 = load ptr, ptr %7, align 8, !tbaa !65
  %14 = icmp eq ptr %13, null
  br i1 %14, label %15, label %17

15:                                               ; preds = %3
  %16 = load ptr, ptr %6, align 8, !tbaa !65
  store ptr %16, ptr %4, align 8
  store i32 1, ptr %11, align 4
  br label %82

17:                                               ; preds = %3
  %18 = load ptr, ptr %9, align 8, !tbaa !65
  %19 = icmp eq ptr %18, null
  br i1 %19, label %20, label %22

20:                                               ; preds = %17
  %21 = load ptr, ptr %7, align 8, !tbaa !65
  store ptr %21, ptr %4, align 8
  store i32 1, ptr %11, align 4
  br label %82

22:                                               ; preds = %17
  %23 = load ptr, ptr %9, align 8, !tbaa !65
  %24 = getelementptr inbounds nuw %struct.RNode, ptr %23, i32 0, i32 0
  %25 = load i64, ptr %24, align 8, !tbaa !110
  %26 = and i64 %25, 32512
  %27 = lshr i64 %26, 8
  %28 = trunc i64 %27 to i32
  switch i32 %28, label %29 [
    i32 1, label %36
  ]

29:                                               ; preds = %22
  %30 = load ptr, ptr %5, align 8, !tbaa !7
  %31 = load ptr, ptr %6, align 8, !tbaa !65
  %32 = load ptr, ptr %6, align 8, !tbaa !65
  %33 = getelementptr inbounds nuw %struct.RNode, ptr %32, i32 0, i32 1
  %34 = call ptr @rb_node_block_new(ptr noundef %30, ptr noundef %31, ptr noundef %33)
  store ptr %34, ptr %8, align 8, !tbaa !65
  store ptr %34, ptr %9, align 8, !tbaa !65
  %35 = load ptr, ptr %8, align 8, !tbaa !65
  store ptr %35, ptr %6, align 8, !tbaa !65
  br label %40

36:                                               ; preds = %22
  %37 = load ptr, ptr %9, align 8, !tbaa !65
  %38 = getelementptr inbounds nuw %struct.RNode_BLOCK, ptr %37, i32 0, i32 2
  %39 = load ptr, ptr %38, align 8, !tbaa !207
  store ptr %39, ptr %8, align 8, !tbaa !65
  br label %40

40:                                               ; preds = %36, %29
  %41 = load ptr, ptr %8, align 8, !tbaa !65
  %42 = getelementptr inbounds nuw %struct.RNode_BLOCK, ptr %41, i32 0, i32 1
  %43 = load ptr, ptr %42, align 8, !tbaa !73
  store ptr %43, ptr %10, align 8, !tbaa !65
  %44 = load ptr, ptr %10, align 8, !tbaa !65
  %45 = getelementptr inbounds nuw %struct.RNode, ptr %44, i32 0, i32 0
  %46 = load i64, ptr %45, align 8, !tbaa !110
  %47 = and i64 %46, 32512
  %48 = lshr i64 %47, 8
  %49 = trunc i64 %48 to i32
  switch i32 %49, label %56 [
    i32 46, label %50
    i32 14, label %50
    i32 15, label %50
    i32 16, label %50
    i32 17, label %50
  ]

50:                                               ; preds = %40, %40, %40, %40, %40
  %51 = load ptr, ptr %5, align 8, !tbaa !7
  %52 = getelementptr inbounds nuw %struct.parser_params, ptr %51, i32 0, i32 16
  %53 = load ptr, ptr %52, align 8, !tbaa !81
  %54 = load ptr, ptr %7, align 8, !tbaa !65
  %55 = call i32 @nd_line(ptr noundef %54)
  call void (ptr, i32, ptr, ...) @rb_compile_warning(ptr noundef %53, i32 noundef %55, ptr noundef @.str.860)
  br label %57

56:                                               ; preds = %40
  br label %57

57:                                               ; preds = %56, %50
  %58 = load ptr, ptr %7, align 8, !tbaa !65
  %59 = call zeroext i1 @nd_type_p(ptr noundef %58, i32 noundef 1)
  br i1 %59, label %66, label %60

60:                                               ; preds = %57
  %61 = load ptr, ptr %5, align 8, !tbaa !7
  %62 = load ptr, ptr %7, align 8, !tbaa !65
  %63 = load ptr, ptr %7, align 8, !tbaa !65
  %64 = getelementptr inbounds nuw %struct.RNode, ptr %63, i32 0, i32 1
  %65 = call ptr @rb_node_block_new(ptr noundef %61, ptr noundef %62, ptr noundef %64)
  store ptr %65, ptr %7, align 8, !tbaa !65
  br label %66

66:                                               ; preds = %60, %57
  %67 = load ptr, ptr %7, align 8, !tbaa !65
  %68 = load ptr, ptr %8, align 8, !tbaa !65
  %69 = getelementptr inbounds nuw %struct.RNode_BLOCK, ptr %68, i32 0, i32 3
  store ptr %67, ptr %69, align 8, !tbaa !66
  %70 = load ptr, ptr %7, align 8, !tbaa !65
  %71 = getelementptr inbounds nuw %struct.RNode_BLOCK, ptr %70, i32 0, i32 2
  %72 = load ptr, ptr %71, align 8, !tbaa !207
  %73 = load ptr, ptr %9, align 8, !tbaa !65
  %74 = getelementptr inbounds nuw %struct.RNode_BLOCK, ptr %73, i32 0, i32 2
  store ptr %72, ptr %74, align 8, !tbaa !207
  %75 = load ptr, ptr %6, align 8, !tbaa !65
  %76 = getelementptr inbounds nuw %struct.RNode, ptr %75, i32 0, i32 1
  %77 = getelementptr inbounds nuw %struct.rb_code_location_struct, ptr %76, i32 0, i32 1
  %78 = load ptr, ptr %7, align 8, !tbaa !65
  %79 = getelementptr inbounds nuw %struct.RNode, ptr %78, i32 0, i32 1
  %80 = getelementptr inbounds nuw %struct.rb_code_location_struct, ptr %79, i32 0, i32 1
  call void @llvm.memcpy.p0.p0.i64(ptr align 8 %77, ptr align 8 %80, i64 8, i1 false), !tbaa.struct !47
  %81 = load ptr, ptr %6, align 8, !tbaa !65
  store ptr %81, ptr %4, align 8
  store i32 1, ptr %11, align 4
  br label %82

82:                                               ; preds = %66, %20, %15
  call void @llvm.lifetime.end.p0(i64 8, ptr %10) #26
  call void @llvm.lifetime.end.p0(i64 8, ptr %9) #26
  call void @llvm.lifetime.end.p0(i64 8, ptr %8) #26
  %83 = load ptr, ptr %4, align 8
  ret ptr %83
}