; Function Attrs: nounwind sspstrong uwtable
define internal fastcc noundef ptr @block_append(ptr noundef captures(none) %0, ptr noundef %1, ptr noundef %2) unnamed_addr #0 {
  %4 = icmp eq ptr %2, null
  br i1 %4, label %70, label %5

5:                                                ; preds = %3
  %6 = icmp eq ptr %1, null
  br i1 %6, label %70, label %7

7:                                                ; preds = %5
  %8 = load i64, ptr %1, align 8, !tbaa !72
  %9 = and i64 %8, 32512
  %cond = icmp eq i64 %9, 256
  br i1 %cond, label %28, label %10

10:                                               ; preds = %7
  %11 = getelementptr inbounds nuw i8, ptr %1, i64 8
  %12 = getelementptr i8, ptr %0, i64 288
  %.val.i.i = load ptr, ptr %12, align 8, !tbaa !130
  %13 = tail call ptr @rb_ast_newnode(ptr noundef %.val.i.i, i32 noundef range(i32 0, 115) 1, i64 noundef range(i64 32, 129) 56, i64 noundef 8) #35
  tail call void @rb_node_init(ptr noundef %13, i32 noundef range(i32 0, 115) 1) #35
  %14 = getelementptr inbounds nuw i8, ptr %13, i64 8
  tail call void @llvm.memcpy.p0.p0.i64(ptr noundef nonnull align 8 dereferenceable(16) %14, ptr noundef nonnull readonly align 4 dereferenceable(16) %11, i64 16, i1 false), !tbaa.struct !59
  %15 = load i32, ptr %11, align 4, !tbaa !53
  %16 = sext i32 %15 to i64
  %17 = load i64, ptr %13, align 8, !tbaa !72
  %18 = and i64 %17, 32767
  %19 = shl nsw i64 %16, 15
  %20 = or disjoint i64 %18, %19
  store i64 %20, ptr %13, align 8, !tbaa !72
  %21 = getelementptr inbounds nuw i8, ptr %0, i64 296
  %22 = load i32, ptr %21, align 8, !tbaa !207
  %23 = add i32 %22, 1
  store i32 %23, ptr %21, align 8, !tbaa !207
  %24 = getelementptr inbounds nuw i8, ptr %13, i64 24
  store i32 %22, ptr %24, align 8, !tbaa !208
  %25 = getelementptr inbounds nuw i8, ptr %13, i64 32
  store ptr %1, ptr %25, align 8, !tbaa !77
  %26 = getelementptr inbounds nuw i8, ptr %13, i64 40
  store ptr %13, ptr %26, align 8, !tbaa !215
  %27 = getelementptr inbounds nuw i8, ptr %13, i64 48
  store ptr null, ptr %27, align 8, !tbaa !74
  br label %31

28:                                               ; preds = %7
  %29 = getelementptr inbounds nuw i8, ptr %1, i64 40
  %30 = load ptr, ptr %29, align 8, !tbaa !215
  %.phi.trans.insert = getelementptr inbounds nuw i8, ptr %30, i64 32
  %.pre = load ptr, ptr %.phi.trans.insert, align 8, !tbaa !77
  br label %31

31:                                               ; preds = %28, %10
  %32 = phi ptr [ %.pre, %28 ], [ %1, %10 ]
  %.028 = phi ptr [ %30, %28 ], [ %13, %10 ]
  %.027 = phi ptr [ %1, %28 ], [ %13, %10 ]
  %33 = load i64, ptr %32, align 8, !tbaa !72
  %34 = trunc i64 %33 to i32
  %35 = lshr i32 %34, 8
  %36 = and i32 %35, 127
  switch i32 %36, label %42 [
    i32 46, label %nd_line.exit
    i32 14, label %nd_line.exit
    i32 15, label %nd_line.exit
    i32 16, label %nd_line.exit
    i32 17, label %nd_line.exit
  ]

nd_line.exit:                                     ; preds = %31, %31, %31, %31, %31
  %37 = getelementptr inbounds nuw i8, ptr %0, i64 200
  %38 = load ptr, ptr %37, align 8, !tbaa !89
  %39 = load i64, ptr %2, align 8, !tbaa !72
  %40 = lshr i64 %39, 15
  %41 = trunc i64 %40 to i32
  tail call void (ptr, i32, ptr, ...) @rb_compile_warning(ptr noundef %38, i32 noundef %41, ptr noundef nonnull @.str.860) #35
  br label %42

42:                                               ; preds = %31, %nd_line.exit
  %.val = load i64, ptr %2, align 8, !tbaa !72
  %43 = and i64 %.val, 32512
  %44 = icmp eq i64 %43, 256
  br i1 %44, label %._crit_edge, label %45

._crit_edge:                                      ; preds = %42
  %.phi.trans.insert34 = getelementptr inbounds nuw i8, ptr %2, i64 40
  %.pre35 = load ptr, ptr %.phi.trans.insert34, align 8, !tbaa !215
  br label %63

45:                                               ; preds = %42
  %46 = getelementptr inbounds nuw i8, ptr %2, i64 8
  %47 = getelementptr i8, ptr %0, i64 288
  %.val.i.i33 = load ptr, ptr %47, align 8, !tbaa !130
  %48 = tail call ptr @rb_ast_newnode(ptr noundef %.val.i.i33, i32 noundef range(i32 0, 115) 1, i64 noundef range(i64 32, 129) 56, i64 noundef 8) #35
  tail call void @rb_node_init(ptr noundef %48, i32 noundef range(i32 0, 115) 1) #35
  %49 = getelementptr inbounds nuw i8, ptr %48, i64 8
  tail call void @llvm.memcpy.p0.p0.i64(ptr noundef nonnull align 8 dereferenceable(16) %49, ptr noundef nonnull readonly align 4 dereferenceable(16) %46, i64 16, i1 false), !tbaa.struct !59
  %50 = load i32, ptr %46, align 4, !tbaa !53
  %51 = sext i32 %50 to i64
  %52 = load i64, ptr %48, align 8, !tbaa !72
  %53 = and i64 %52, 32767
  %54 = shl nsw i64 %51, 15
  %55 = or disjoint i64 %53, %54
  store i64 %55, ptr %48, align 8, !tbaa !72
  %56 = getelementptr inbounds nuw i8, ptr %0, i64 296
  %57 = load i32, ptr %56, align 8, !tbaa !207
  %58 = add i32 %57, 1
  store i32 %58, ptr %56, align 8, !tbaa !207
  %59 = getelementptr inbounds nuw i8, ptr %48, i64 24
  store i32 %57, ptr %59, align 8, !tbaa !208
  %60 = getelementptr inbounds nuw i8, ptr %48, i64 32
  store ptr %2, ptr %60, align 8, !tbaa !77
  %61 = getelementptr inbounds nuw i8, ptr %48, i64 40
  store ptr %48, ptr %61, align 8, !tbaa !215
  %62 = getelementptr inbounds nuw i8, ptr %48, i64 48
  store ptr null, ptr %62, align 8, !tbaa !74
  br label %63

63:                                               ; preds = %._crit_edge, %45
  %64 = phi ptr [ %.pre35, %._crit_edge ], [ %48, %45 ]
  %.029 = phi ptr [ %2, %._crit_edge ], [ %48, %45 ]
  %65 = getelementptr inbounds nuw i8, ptr %.028, i64 48
  store ptr %.029, ptr %65, align 8, !tbaa !74
  %66 = getelementptr inbounds nuw i8, ptr %.027, i64 40
  store ptr %64, ptr %66, align 8, !tbaa !215
  %67 = getelementptr inbounds nuw i8, ptr %.027, i64 16
  %68 = getelementptr inbounds nuw i8, ptr %.029, i64 16
  %69 = load i64, ptr %68, align 8
  store i64 %69, ptr %67, align 8
  br label %70

70:                                               ; preds = %5, %3, %63
  %.0 = phi ptr [ %.027, %63 ], [ %1, %3 ], [ %2, %5 ]
  ret ptr %.0
}